; Function Attrs: nounwind uwtable
define internal fastcc ptr @_build_cluster_string() unnamed_addr #8 {
  %1 = alloca ptr, align 8
  %2 = alloca %struct.slurmdb_federation_cond_t, align 8
  call void @llvm.lifetime.start.p0(i64 8, ptr nonnull %1) #17
  store ptr null, ptr %1, align 8
  call void @llvm.lifetime.start.p0(i64 32, ptr nonnull %2) #17
  %3 = tail call ptr @list_create(ptr noundef null) #17
  %4 = load ptr, ptr getelementptr inbounds nuw (i8, ptr @slurm_conf, i64 248), align 8
  tail call void @list_append(ptr noundef %3, ptr noundef %4) #17
  call void @slurmdb_init_federation_cond(ptr noundef nonnull %2, i1 noundef zeroext false) #17
  store ptr %3, ptr %2, align 8
  %5 = load ptr, ptr @db_conn, align 8
  %6 = call ptr @slurmdb_federations_get(ptr noundef %5, ptr noundef nonnull %2) #17
  %.not = icmp eq ptr %6, null
  br i1 %.not, label %17, label %7

7:                                                ; preds = %0
  %8 = call i32 @list_count(ptr noundef nonnull %6) #17
  %9 = icmp eq i32 %8, 1
  br i1 %9, label %10, label %17

10:                                               ; preds = %7
  %11 = call ptr @list_pop(ptr noundef nonnull %6) #17
  %12 = load ptr, ptr %11, align 8
  %13 = call ptr @xstrdup(ptr noundef %12) #17
  store ptr %13, ptr @fed_name, align 8
  %14 = getelementptr inbounds nuw i8, ptr %11, i64 16
  %15 = load ptr, ptr %14, align 8
  %16 = call i32 @list_for_each(ptr noundef %15, ptr noundef nonnull @_foreach_cluster_list_to_str, ptr noundef nonnull %1) #17
  br label %17

17:                                               ; preds = %10, %7, %0
  %.0 = phi ptr [ %11, %10 ], [ null, %7 ], [ null, %0 ]
  call void @slurm_destroy_federation_rec(ptr noundef %.0) #17
  %.not13 = icmp eq ptr %3, null
  br i1 %.not13, label %19, label %18

18:                                               ; preds = %17
  call void @list_destroy(ptr noundef nonnull %3) #17
  br label %19

19:                                               ; preds = %18, %17
  br i1 %.not, label %21, label %20

20:                                               ; preds = %19
  call void @list_destroy(ptr noundef nonnull %6) #17
  br label %21

21:                                               ; preds = %20, %19
  %22 = load ptr, ptr %1, align 8
  call void @llvm.lifetime.end.p0(i64 32, ptr nonnull %2) #17
  call void @llvm.lifetime.end.p0(i64 8, ptr nonnull %1) #17
  ret ptr %22
}